; Function Attrs: mustprogress uwtable
define hidden noundef i32 @_ZN7datalog7context9rel_queryEjPKP9func_decl(ptr nocapture noundef nonnull align 8 dereferenceable(3556) %this, i32 noundef %num_rels, ptr noundef %rels) local_unnamed_addr #3 align 2 {
entry:
  %m_last_answer = getelementptr inbounds i8, ptr %this, i64 3520
  %0 = load ptr, ptr %m_last_answer, align 8
  %tobool.not.i3.i = icmp eq ptr %0, null
  br i1 %tobool.not.i3.i, label %_ZN7obj_refI4expr11ast_managerEaSEPS0_.exit, label %if.then.i.i.i

if.then.i.i.i:                                    ; preds = %entry
  %m_manager.i.i = getelementptr inbounds i8, ptr %this, i64 3528
  %1 = load ptr, ptr %m_manager.i.i, align 8
  %m_ref_count.i.i.i.i = getelementptr inbounds i8, ptr %0, i64 8
  %2 = load i32, ptr %m_ref_count.i.i.i.i, align 4
  %dec.i.i.i.i = add i32 %2, -1
  store i32 %dec.i.i.i.i, ptr %m_ref_count.i.i.i.i, align 4
  %cmp.i.i.i = icmp eq i32 %dec.i.i.i.i, 0
  br i1 %cmp.i.i.i, label %if.then2.i.i.i, label %_ZN7obj_refI4expr11ast_managerEaSEPS0_.exit

if.then2.i.i.i:                                   ; preds = %if.then.i.i.i
  tail call void @_ZN11ast_manager11delete_nodeEP3ast(ptr noundef nonnull align 8 dereferenceable(976) %1, ptr noundef nonnull %0)
  br label %_ZN7obj_refI4expr11ast_managerEaSEPS0_.exit

_ZN7obj_refI4expr11ast_managerEaSEPS0_.exit:      ; preds = %entry, %if.then.i.i.i, %if.then2.i.i.i
  store ptr null, ptr %m_last_answer, align 8
  tail call void @_ZN7datalog7context13ensure_engineEP4expr(ptr noundef nonnull align 8 dereferenceable(3556) %this, ptr noundef null)
  %m_engine = getelementptr inbounds i8, ptr %this, i64 3504
  %3 = load ptr, ptr %m_engine, align 8
  %vtable = load ptr, ptr %3, align 8
  %vfn = getelementptr inbounds i8, ptr %vtable, i64 40
  %4 = load ptr, ptr %vfn, align 8
  %call3 = tail call noundef i32 %4(ptr noundef nonnull align 8 dereferenceable(48) %3, i32 noundef %num_rels, ptr noundef %rels)
  ret i32 %call3
}